; Function Attrs: mustprogress nounwind uwtable
define void @_ZN6casadi5SplitD2Ev(ptr noundef nonnull align 8 dereferenceable(112) %0) unnamed_addr #4 align 2 personality ptr @__gxx_personality_v0 {
  store ptr getelementptr inbounds ({ [108 x ptr] }, ptr @_ZTVN6casadi5SplitE, i64 0, i32 0, i64 2), ptr %0, align 8
  %2 = getelementptr inbounds i8, ptr %0, i64 88
  %3 = load ptr, ptr %2, align 8
  %4 = getelementptr inbounds i8, ptr %0, i64 96
  %5 = load ptr, ptr %4, align 8
  %.not4.i.i.i.i = icmp eq ptr %3, %5
  br i1 %.not4.i.i.i.i, label %_ZSt8_DestroyIPN6casadi8SparsityES1_EvT_S3_RSaIT0_E.exit.i, label %.lr.ph.i.i.i.i

.lr.ph.i.i.i.i:                                   ; preds = %1, %.lr.ph.i.i.i.i
  %.05.i.i.i.i = phi ptr [ %6, %.lr.ph.i.i.i.i ], [ %3, %1 ]
  tail call void @_ZN6casadi12SharedObjectD2Ev(ptr noundef nonnull align 8 dereferenceable(8) %.05.i.i.i.i) #21
  %6 = getelementptr inbounds i8, ptr %.05.i.i.i.i, i64 8
  %.not.i.i.i.i = icmp eq ptr %6, %5
  br i1 %.not.i.i.i.i, label %_ZSt8_DestroyIPN6casadi8SparsityES1_EvT_S3_RSaIT0_E.exitthread-pre-split.i, label %.lr.ph.i.i.i.i, !llvm.loop !10

_ZSt8_DestroyIPN6casadi8SparsityES1_EvT_S3_RSaIT0_E.exitthread-pre-split.i: ; preds = %.lr.ph.i.i.i.i
  %.pr.i = load ptr, ptr %2, align 8
  br label %_ZSt8_DestroyIPN6casadi8SparsityES1_EvT_S3_RSaIT0_E.exit.i

_ZSt8_DestroyIPN6casadi8SparsityES1_EvT_S3_RSaIT0_E.exit.i: ; preds = %_ZSt8_DestroyIPN6casadi8SparsityES1_EvT_S3_RSaIT0_E.exitthread-pre-split.i, %1
  %7 = phi ptr [ %.pr.i, %_ZSt8_DestroyIPN6casadi8SparsityES1_EvT_S3_RSaIT0_E.exitthread-pre-split.i ], [ %3, %1 ]
  %.not.i.i.i = icmp eq ptr %7, null
  br i1 %.not.i.i.i, label %_ZNSt6vectorIN6casadi8SparsityESaIS1_EED2Ev.exit, label %8

8:                                                ; preds = %_ZSt8_DestroyIPN6casadi8SparsityES1_EvT_S3_RSaIT0_E.exit.i
  tail call void @_ZdlPv(ptr noundef nonnull %7) #22
  br label %_ZNSt6vectorIN6casadi8SparsityESaIS1_EED2Ev.exit

_ZNSt6vectorIN6casadi8SparsityESaIS1_EED2Ev.exit: ; preds = %_ZSt8_DestroyIPN6casadi8SparsityES1_EvT_S3_RSaIT0_E.exit.i, %8
  %9 = getelementptr inbounds i8, ptr %0, i64 64
  %10 = load ptr, ptr %9, align 8
  %.not.i.i.i1 = icmp eq ptr %10, null
  br i1 %.not.i.i.i1, label %_ZNSt6vectorIxSaIxEED2Ev.exit, label %11

11:                                               ; preds = %_ZNSt6vectorIN6casadi8SparsityESaIS1_EED2Ev.exit
  tail call void @_ZdlPv(ptr noundef nonnull %10) #22
  br label %_ZNSt6vectorIxSaIxEED2Ev.exit

_ZNSt6vectorIxSaIxEED2Ev.exit:                    ; preds = %_ZNSt6vectorIN6casadi8SparsityESaIS1_EED2Ev.exit, %11
  tail call void @_ZN6casadi14MultipleOutputD2Ev(ptr noundef nonnull align 8 dereferenceable(64) %0) #21
  ret void
}